target datalayout = "e-m:e-p270:32:32-p271:32:32-p272:64:64-i64:64-i128:128-f80:128-n8:16:32:64-S128"
target triple = "x86_64-pc-linux-gnu"

%class.Mutex = type { ptr, %class.PlatformMonitor, ptr }
%class.PlatformMonitor = type { %class.PlatformMutex, %union.pthread_cond_t }
%class.PlatformMutex = type { %union.pthread_mutex_t }
%union.pthread_mutex_t = type { %struct.__pthread_mutex_s }
%struct.__pthread_mutex_s = type { i32, i32, i32, i32, i32, i16, i16, %struct.__pthread_internal_list }
%struct.__pthread_internal_list = type { ptr, ptr }
%union.pthread_cond_t = type { %struct.__pthread_cond_s }
%struct.__pthread_cond_s = type { %union.__atomic_wide_counter, %union.__atomic_wide_counter, [2 x i32], [2 x i32], i32, i32, [2 x i32] }
%union.__atomic_wide_counter = type { i64 }
%"struct.Atomic::StoreImpl" = type { i8 }
%"struct.Atomic::PlatformStore" = type { i8 }
%"struct.Atomic::LoadImpl" = type { i8 }
%"struct.Atomic::PlatformLoad" = type { i8 }

@_ZN6Thread12_thr_currentE = external thread_local global ptr, align 8

; Function Attrs: mustprogress nounwind uwtable
define linkonce_odr hidden void @_ZNK6Atomic13PlatformStoreILm8EEclIP6ThreadEEvPVT_S5_(ptr noundef nonnull align 1 dereferenceable(1) %0, ptr noundef %1, ptr noundef %2) #1 comdat align 2 {
  %4 = alloca ptr, align 8
  %5 = alloca ptr, align 8
  %6 = alloca ptr, align 8
  store ptr %0, ptr %4, align 8
  store ptr %1, ptr %5, align 8
  store ptr %2, ptr %6, align 8
  %7 = load ptr, ptr %6, align 8
  %8 = load ptr, ptr %5, align 8
  store volatile ptr %7, ptr %8, align 8
  ret void
}

; Function Attrs: mustprogress nounwind uwtable
define linkonce_odr hidden void @_ZNK6Atomic9StoreImplIP6ThreadS2_NS_13PlatformStoreILm8EEEvEclEPVS2_S2_(ptr noundef nonnull align 1 dereferenceable(1) %0, ptr noundef %1, ptr noundef %2) #1 comdat align 2 {
  %4 = alloca ptr, align 8
  %5 = alloca ptr, align 8
  %6 = alloca ptr, align 8
  %7 = alloca ptr, align 8
  %8 = alloca %"struct.Atomic::PlatformStore", align 1
  store ptr %0, ptr %4, align 8
  store ptr %1, ptr %5, align 8
  store ptr %2, ptr %6, align 8
  %9 = load ptr, ptr %6, align 8
  store ptr %9, ptr %7, align 8
  %10 = load ptr, ptr %5, align 8
  %11 = load ptr, ptr %7, align 8
  call void @_ZNK6Atomic13PlatformStoreILm8EEclIP6ThreadEEvPVT_S5_(ptr noundef nonnull align 1 dereferenceable(1) %8, ptr noundef %10, ptr noundef %11)
  ret void
}

; Function Attrs: mustprogress nounwind uwtable
define linkonce_odr hidden void @_ZN6Atomic5storeIP6ThreadS2_EEvPVT_T0_(ptr noundef %0, ptr noundef %1) #1 comdat align 2 {
  %3 = alloca ptr, align 8
  %4 = alloca ptr, align 8
  %5 = alloca %"struct.Atomic::StoreImpl", align 1
  store ptr %0, ptr %3, align 8
  store ptr %1, ptr %4, align 8
  %6 = load ptr, ptr %3, align 8
  %7 = load ptr, ptr %4, align 8
  call void @_ZNK6Atomic9StoreImplIP6ThreadS2_NS_13PlatformStoreILm8EEEvEclEPVS2_S2_(ptr noundef nonnull align 1 dereferenceable(1) %5, ptr noundef %6, ptr noundef %7)
  ret void
}

; Function Attrs: mustprogress nounwind uwtable
define linkonce_odr hidden noundef ptr @_ZNK6Atomic12PlatformLoadILm8EEclIP6ThreadEET_PVKS5_(ptr noundef nonnull align 1 dereferenceable(1) %0, ptr noundef %1) #1 comdat align 2 {
  %3 = alloca ptr, align 8
  %4 = alloca ptr, align 8
  store ptr %0, ptr %3, align 8
  store ptr %1, ptr %4, align 8
  %5 = load ptr, ptr %4, align 8
  %6 = load volatile ptr, ptr %5, align 8
  ret ptr %6
}

; Function Attrs: mustprogress nounwind uwtable
define linkonce_odr hidden void @_ZN5Mutex13raw_set_ownerEP6Thread(ptr noundef nonnull align 8 dereferenceable(104) %0, ptr noundef %1) #1 comdat align 2 {
  %3 = alloca ptr, align 8
  %4 = alloca ptr, align 8
  store ptr %0, ptr %3, align 8
  store ptr %1, ptr %4, align 8
  %5 = load ptr, ptr %3, align 8
  %6 = getelementptr inbounds %class.Mutex, ptr %5, i32 0, i32 0
  %7 = load ptr, ptr %4, align 8
  call void @_ZN6Atomic5storeIP6ThreadS2_EEvPVT_T0_(ptr noundef %6, ptr noundef %7)
  ret void
}

; Function Attrs: mustprogress nounwind uwtable
define linkonce_odr hidden noundef ptr @_ZNK6Atomic8LoadImplIP6ThreadNS_12PlatformLoadILm8EEEvEclEPVKS2_(ptr noundef nonnull align 1 dereferenceable(1) %0, ptr noundef %1) #1 comdat align 2 {
  %3 = alloca ptr, align 8
  %4 = alloca ptr, align 8
  %5 = alloca %"struct.Atomic::PlatformLoad", align 1
  store ptr %0, ptr %3, align 8
  store ptr %1, ptr %4, align 8
  %6 = load ptr, ptr %4, align 8
  %7 = call noundef ptr @_ZNK6Atomic12PlatformLoadILm8EEclIP6ThreadEET_PVKS5_(ptr noundef nonnull align 1 dereferenceable(1) %5, ptr noundef %6)
  ret ptr %7
}

; Function Attrs: mustprogress nounwind uwtable
define linkonce_odr hidden void @_ZN5Mutex24set_owner_implementationEP6Thread(ptr noundef nonnull align 8 dereferenceable(104) %0, ptr noundef %1) #1 comdat align 2 {
  %3 = alloca ptr, align 8
  %4 = alloca ptr, align 8
  store ptr %0, ptr %3, align 8
  store ptr %1, ptr %4, align 8
  %5 = load ptr, ptr %3, align 8
  %6 = load ptr, ptr %4, align 8
  call void @_ZN5Mutex13raw_set_ownerEP6Thread(ptr noundef nonnull align 8 dereferenceable(104) %5, ptr noundef %6)
  ret void
}

; Function Attrs: mustprogress nounwind uwtable
define linkonce_odr hidden noundef ptr @_ZN13PlatformMutex5mutexEv(ptr noundef nonnull align 8 dereferenceable(40) %0) #1 comdat align 2 {
  %2 = alloca ptr, align 8
  store ptr %0, ptr %2, align 8
  %3 = load ptr, ptr %2, align 8
  %4 = getelementptr inbounds %class.PlatformMutex, ptr %3, i32 0, i32 0
  ret ptr %4
}

; Function Attrs: mustprogress nounwind uwtable
define linkonce_odr hidden noundef ptr @_ZN6Atomic4loadIP6ThreadEET_PVKS3_(ptr noundef %0) #1 comdat align 2 {
  %2 = alloca ptr, align 8
  %3 = alloca %"struct.Atomic::LoadImpl", align 1
  store ptr %0, ptr %2, align 8
  %4 = load ptr, ptr %2, align 8
  %5 = call noundef ptr @_ZNK6Atomic8LoadImplIP6ThreadNS_12PlatformLoadILm8EEEvEclEPVKS2_(ptr noundef nonnull align 1 dereferenceable(1) %3, ptr noundef %4)
  ret ptr %5
}

; Function Attrs: mustprogress nounwind uwtable
define linkonce_odr hidden noundef ptr @_ZN6Thread15current_or_nullEv() #1 comdat align 2 {
  %1 = call align 8 ptr @llvm.threadlocal.address.p0(ptr align 8 @_ZN6Thread12_thr_currentE)
  %2 = load ptr, ptr %1, align 8
  ret ptr %2
}

; Function Attrs: mustprogress nounwind uwtable
define linkonce_odr hidden void @_ZN5Mutex9set_ownerEP6Thread(ptr noundef nonnull align 8 dereferenceable(104) %0, ptr noundef %1) #1 comdat align 2 {
  %3 = alloca ptr, align 8
  %4 = alloca ptr, align 8
  store ptr %0, ptr %3, align 8
  store ptr %1, ptr %4, align 8
  %5 = load ptr, ptr %3, align 8
  %6 = load ptr, ptr %4, align 8
  call void @_ZN5Mutex24set_owner_implementationEP6Thread(ptr noundef nonnull align 8 dereferenceable(104) %5, ptr noundef %6)
  ret void
}

; Function Attrs: mustprogress nounwind uwtable
define linkonce_odr hidden void @_ZN5Mutex12assert_ownerEP6Thread(ptr noundef nonnull align 8 dereferenceable(104) %0, ptr noundef %1) #1 comdat align 2 {
  %3 = alloca ptr, align 8
  %4 = alloca ptr, align 8
  store ptr %0, ptr %3, align 8
  store ptr %1, ptr %4, align 8
  ret void
}

; Function Attrs: mustprogress nounwind uwtable
define linkonce_odr hidden noundef zeroext i1 @_ZN13PlatformMutex8try_lockEv(ptr noundef nonnull align 8 dereferenceable(40) %0) #1 comdat align 2 {
  %2 = alloca ptr, align 8
  %3 = alloca i32, align 4
  store ptr %0, ptr %2, align 8
  %4 = load ptr, ptr %2, align 8
  %5 = call noundef ptr @_ZN13PlatformMutex5mutexEv(ptr noundef nonnull align 8 dereferenceable(40) %4)
  %6 = call i32 @pthread_mutex_trylock(ptr noundef %5) #5
  store i32 %6, ptr %3, align 4
  %7 = load i32, ptr %3, align 4
  %8 = icmp eq i32 %7, 0
  ret i1 %8
}

; Function Attrs: mustprogress nounwind uwtable
define linkonce_odr hidden void @_ZN5Mutex17check_block_stateEP6Thread(ptr noundef nonnull align 8 dereferenceable(104) %0, ptr noundef %1) #1 comdat align 2 {
  %3 = alloca ptr, align 8
  %4 = alloca ptr, align 8
  store ptr %0, ptr %3, align 8
  store ptr %1, ptr %4, align 8
  ret void
}

; Function Attrs: mustprogress nounwind uwtable
define linkonce_odr hidden void @_ZN5Mutex10check_rankEP6Thread(ptr noundef nonnull align 8 dereferenceable(104) %0, ptr noundef %1) #1 comdat align 2 {
  %3 = alloca ptr, align 8
  %4 = alloca ptr, align 8
  store ptr %0, ptr %3, align 8
  store ptr %1, ptr %4, align 8
  ret void
}

; Function Attrs: mustprogress nounwind uwtable
define linkonce_odr hidden noundef ptr @_ZNK5Mutex5ownerEv(ptr noundef nonnull align 8 dereferenceable(104) %0) #1 comdat align 2 {
  %2 = alloca ptr, align 8
  store ptr %0, ptr %2, align 8
  %3 = load ptr, ptr %2, align 8
  %4 = getelementptr inbounds %class.Mutex, ptr %3, i32 0, i32 0
  %5 = call noundef ptr @_ZN6Atomic4loadIP6ThreadEET_PVKS3_(ptr noundef %4)
  ret ptr %5
}

; Function Attrs: mustprogress nounwind uwtable
define linkonce_odr hidden noundef ptr @_ZN6Thread7currentEv() #1 comdat align 2 {
  %1 = alloca ptr, align 8
  %2 = call noundef ptr @_ZN6Thread15current_or_nullEv()
  store ptr %2, ptr %1, align 8
  %3 = load ptr, ptr %1, align 8
  ret ptr %3
}

; Function Attrs: mustprogress nounwind uwtable
define hidden noundef zeroext i1 @_ZN5Mutex14try_lock_innerEb(ptr noundef nonnull align 8 dereferenceable(104) %0, i1 noundef zeroext %1) #1 align 2 {
  %3 = alloca i1, align 1
  %4 = alloca ptr, align 8
  %5 = alloca i8, align 1
  %6 = alloca ptr, align 8
  store ptr %0, ptr %4, align 8
  %7 = zext i1 %1 to i8
  store i8 %7, ptr %5, align 1
  %8 = load ptr, ptr %4, align 8
  %9 = call noundef ptr @_ZN6Thread7currentEv()
  store ptr %9, ptr %6, align 8
  %10 = call noundef ptr @_ZNK5Mutex5ownerEv(ptr noundef nonnull align 8 dereferenceable(104) %8)
  %11 = load ptr, ptr %6, align 8
  %12 = icmp eq ptr %10, %11
  br i1 %12, label %13, label %14

13:                                               ; preds = %2
  store i1 false, ptr %3, align 1
  br label %26

14:                                               ; preds = %2
  %15 = load i8, ptr %5, align 1
  %16 = trunc i8 %15 to i1
  br i1 %16, label %17, label %19

17:                                               ; preds = %14
  %18 = load ptr, ptr %6, align 8
  call void @_ZN5Mutex10check_rankEP6Thread(ptr noundef nonnull align 8 dereferenceable(104) %8, ptr noundef %18)
  br label %19

19:                                               ; preds = %17, %14
  %20 = load ptr, ptr %6, align 8
  call void @_ZN5Mutex17check_block_stateEP6Thread(ptr noundef nonnull align 8 dereferenceable(104) %8, ptr noundef %20)
  %21 = getelementptr inbounds %class.Mutex, ptr %8, i32 0, i32 1
  %22 = call noundef zeroext i1 @_ZN13PlatformMutex8try_lockEv(ptr noundef nonnull align 8 dereferenceable(40) %21)
  br i1 %22, label %23, label %25

23:                                               ; preds = %19
  call void @_ZN5Mutex12assert_ownerEP6Thread(ptr noundef nonnull align 8 dereferenceable(104) %8, ptr noundef null)
  %24 = load ptr, ptr %6, align 8
  call void @_ZN5Mutex9set_ownerEP6Thread(ptr noundef nonnull align 8 dereferenceable(104) %8, ptr noundef %24)
  store i1 true, ptr %3, align 1
  br label %26

25:                                               ; preds = %19
  store i1 false, ptr %3, align 1
  br label %26

26:                                               ; preds = %25, %23, %13
  %27 = load i1, ptr %3, align 1
  ret i1 %27
}

; Function Attrs: mustprogress nounwind uwtable
define hidden noundef zeroext i1 @_ZN5Mutex27try_lock_without_rank_checkEv(ptr noundef nonnull align 8 dereferenceable(104) %0) #1 align 2 {
  %2 = alloca ptr, align 8
  %3 = alloca i8, align 1
  store ptr %0, ptr %2, align 8
  %4 = load ptr, ptr %2, align 8
  %5 = call noundef zeroext i1 @_ZN5Mutex14try_lock_innerEb(ptr noundef nonnull align 8 dereferenceable(104) %4, i1 noundef zeroext false)
  %6 = zext i1 %5 to i8
  store i8 %6, ptr %3, align 1
  %7 = load i8, ptr %3, align 1
  %8 = trunc i8 %7 to i1
  ret i1 %8
}