; Function Attrs: mustprogress nounwind uwtable
define hidden noundef zeroext i1 @_ZN5Mutex27try_lock_without_rank_checkEv(ptr noundef nonnull align 8 dereferenceable(104) %0) local_unnamed_addr #0 align 2 {
  %2 = tail call align 8 ptr @llvm.threadlocal.address.p0(ptr align 8 @_ZN6Thread12_thr_currentE)
  %3 = load ptr, ptr %2, align 8
  %4 = load volatile ptr, ptr %0, align 8
  %5 = icmp eq ptr %4, %3
  br i1 %5, label %_ZN5Mutex14try_lock_innerEb.exit, label %6

6:                                                ; preds = %1
  %7 = getelementptr inbounds i8, ptr %0, i64 8
  %8 = tail call i32 @pthread_mutex_trylock(ptr noundef nonnull %7) #7
  %9 = icmp eq i32 %8, 0
  br i1 %9, label %10, label %_ZN5Mutex14try_lock_innerEb.exit

10:                                               ; preds = %6
  store volatile ptr %3, ptr %0, align 8
  br label %_ZN5Mutex14try_lock_innerEb.exit

_ZN5Mutex14try_lock_innerEb.exit:                 ; preds = %1, %6, %10
  %.0.i = phi i1 [ true, %10 ], [ false, %1 ], [ false, %6 ]
  ret i1 %.0.i
}